Certificate:
    Data:
        Version: 3 (0x2)
        Serial Number:
            03:b7:0c:40:cf:0e:ad:58:9b:1c:b4:5f:8a:55:a2:07
        Signature Algorithm: sha256WithRSAEncryption
        Issuer: CN=ChangeMe
        Validity
            Not Before: Mar 20 10:04:43 2021 GMT
            Not After : Jun 23 10:04:43 2023 GMT
        Subject: CN=server
        Subject Public Key Info:
            Public Key Algorithm: rsaEncryption
                RSA Public-Key: (2048 bit)
                Modulus:
                    00:c5:cb:bb:82:2c:da:e1:59:d7:c6:35:92:06:fb:
                    4a:9a:49:19:9f:4e:7a:63:1d:61:23:c6:5f:32:f7:
                    83:79:44:d3:cc:c2:f0:08:21:1b:46:48:20:e6:a0:
                    91:85:76:71:7a:14:a8:95:4e:8a:69:21:8e:c0:9e:
                    20:df:7a:3b:26:b9:c0:3a:8f:ee:a3:45:61:5d:1c:
                    f8:49:d9:6c:37:5d:ec:b9:cc:a9:bf:42:10:5c:e2:
                    30:bc:f7:bf:3a:b8:2e:eb:cb:0d:09:63:b6:fd:2a:
                    93:15:2e:68:46:e6:c3:d5:de:23:32:93:ab:96:cd:
                    46:30:24:60:64:a1:24:55:6d:b2:a2:32:ee:26:13:
                    57:24:2b:df:8b:90:93:1c:a4:73:b7:05:5e:09:ab:
                    4f:b6:da:87:e4:1c:d1:db:1a:5c:5f:8e:34:42:bf:
                    07:db:7f:78:23:38:45:1c:b7:a1:24:23:85:79:fe:
                    7b:ec:a4:f9:27:fb:10:f1:16:c4:6b:8b:2a:02:35:
                    d2:42:a4:2d:db:65:43:fb:8c:08:ca:40:20:a1:64:
                    c5:d0:f1:a6:e0:d3:61:36:d0:ed:34:33:3c:28:77:
                    aa:09:8e:3c:7a:b5:30:5d:ed:15:10:6c:74:7f:3c:
                    43:35:1f:70:53:be:cc:46:6c:0f:a9:c8:30:79:52:
                    9e:e3
                Exponent: 65537 (0x10001)
        X509v3 extensions:
            X509v3 Basic Constraints: 
                CA:FALSE
            X509v3 Subject Key Identifier: 
                67:9B:BD:24:1D:2B:3D:48:58:F0:E0:56:53:02:07:10:4E:C8:9B:4F
            X509v3 Authority Key Identifier: 
                keyid:F4:E3:04:60:FD:DF:A6:0C:7E:B1:16:C4:7E:3E:C1:E2:36:B6:94:B9
                DirName:/CN=ChangeMe
                serial:06:D8:CC:DF:11:AC:B4:75:33:AC:00:12:1A:51:97:7F:2E:A0:E6:53

            X509v3 Extended Key Usage: 
                TLS Web Server Authentication
            X509v3 Key Usage: 
                Digital Signature, Key Encipherment
            X509v3 Subject Alternative Name: 
                DNS:server
    Signature Algorithm: sha256WithRSAEncryption
         af:62:5b:10:3e:ec:1b:6e:f3:a5:18:74:0d:ef:4b:ba:1b:70:
         6b:b7:2f:4f:33:4b:e3:8d:d2:31:56:8f:e8:32:d9:d4:8b:77:
         c4:02:35:bb:f7:1d:b7:95:85:75:a2:8c:cf:2b:25:32:f7:aa:
         13:94:a4:ec:c6:0a:1a:d8:36:f0:d3:53:93:9e:88:21:09:77:
         b0:3e:21:0c:8f:84:bd:bd:3b:19:91:45:14:ff:df:9a:f6:d9:
         54:66:db:ef:c9:a8:ca:bc:04:d3:9c:39:c3:55:cb:7b:67:37:
         16:b6:ea:b3:fe:d9:d9:48:b5:4e:a0:07:d3:31:fd:ac:b5:60:
         5f:05:2e:84:d7:6a:e4:f5:38:fe:f0:34:99:3d:29:d2:74:19:
         9e:8b:05:d1:e5:65:93:23:c7:c1:21:85:00:ae:f3:44:57:23:
         7d:68:e3:a0:37:84:fa:f9:86:e2:84:09:ce:ec:81:89:b4:05:
         2d:7b:e6:52:5a:c8:9b:58:a8:12:e4:7d:e6:46:3c:ed:a5:e4:
         31:bd:ac:bb:bc:09:36:71:63:eb:44:ce:8b:84:f8:73:0a:ac:
         44:e4:9b:06:eb:45:69:09:cd:6f:97:6d:79:8d:2e:9e:bd:21:
         89:2d:b8:48:7d:ee:0f:0d:54:8a:8b:07:79:f5:76:73:5d:95:
         45:6e:cc:7b
-----BEGIN CERTIFICATE-----
MIIDYTCCAkmgAwIBAgIQA7cMQM8OrVibHLRfilWiBzANBgkqhkiG9w0BAQsFADAT
MREwDwYDVQQDDAhDaGFuZ2VNZTAeFw0yMTAzMjAxMDA0NDNaFw0yMzA2MjMxMDA0
NDNaMBExDzANBgNVBAMMBnNlcnZlcjCCASIwDQYJKoZIhvcNAQEBBQADggEPADCC
AQoCggEBAMXLu4Is2uFZ18Y1kgb7SppJGZ9OemMdYSPGXzL3g3lE08zC8AghG0ZI
IOagkYV2cXoUqJVOimkhjsCeIN96Oya5wDqP7qNFYV0c+EnZbDdd7LnMqb9CEFzi
MLz3vzq4LuvLDQljtv0qkxUuaEbmw9XeIzKTq5bNRjAkYGShJFVtsqIy7iYTVyQr
34uQkxykc7cFXgmrT7bah+Qc0dsaXF+ONEK/B9t/eCM4RRy3oSQjhXn+e+yk+Sf7
EPEWxGuLKgI10kKkLdtlQ/uMCMpAIKFkxdDxpuDTYTbQ7TQzPCh3qgmOPHq1MF3t
FRBsdH88QzUfcFO+zEZsD6nIMHlSnuMCAwEAAaOBsjCBrzAJBgNVHRMEAjAAMB0G
A1UdDgQWBBRnm70kHSs9SFjw4FZTAgcQTsibTzBOBgNVHSMERzBFgBT04wRg/d+m
DH6xFsR+PsHiNraUuaEXpBUwEzERMA8GA1UEAwwIQ2hhbmdlTWWCFAbYzN8RrLR1
M6wAEhpRl38uoOZTMBMGA1UdJQQMMAoGCCsGAQUFBwMBMAsGA1UdDwQEAwIFoDAR
BgNVHREECjAIggZzZXJ2ZXIwDQYJKoZIhvcNAQELBQADggEBAK9iWxA+7Btu86UY
dA3vS7obcGu3L08zS+ON0jFWj+gy2dSLd8QCNbv3HbeVhXWijM8rJTL3qhOUpOzG
ChrYNvDTU5OeiCEJd7A+IQyPhL29OxmRRRT/35r22VRm2+/JqMq8BNOcOcNVy3tn
Nxa26rP+2dlItU6gB9Mx/ay1YF8FLoTXauT1OP7wNJk9KdJ0GZ6LBdHlZZMjx8Eh
hQCu80RXI31o46A3hPr5huKECc7sgYm0BS175lJayJtYqBLkfeZGPO2l5DG9rLu8
CTZxY+tEzouE+HMKrETkmwbrRWkJzW+XbXmNLp69IYktuEh97g8NVIqLB3n1dnNd
lUVuzHs=
-----END CERTIFICATE-----
